ccopy_reg
_reconstructor
p1
(csklearn.linear_model.base
LinearRegression
p2
c__builtin__
object
p3
NtRp4
(dp5
S'normalize'
p6
I00
sS'n_jobs'
p7
I1
sS'rank_'
p8
I3
sS'fit_intercept'
p9
I01
sS'_residues'
p10
cnumpy.core.multiarray
scalar
p11
(cnumpy
dtype
p12
(S'f8'
I0
I1
tRp13
(I3
S'<'
NNNI-1
I-1
I0
tbS'$TXmhLc@'
tRp14
sS'singular_'
p15
cnumpy.core.multiarray
_reconstruct
p16
(cnumpy
ndarray
p17
(I0
tS'b'
tRp18
(I1
(I3
tg13
I00
S'\x17t\xc5CE\xfbh@#uG\x8fdaf@\xdb\xae\xaf\x94\x87\x98\x01@'
tbsS'coef_'
p19
g16
(g17
(I0
tS'b'
tRp20
(I1
(I3
tg13
I00
S'\xb0"\xc1\x05\xc4\xc1\x8f?\x9b\xe3\xc8\xd3xav?\x07\xc7S\xad\x98\x93\xff\xbf'
tbsS'_sklearn_version'
p21
S'0.18.1'
p22
sS'copy_X'
p23
I01
sS'intercept_'
p24
g11
(g13
S'&(\x93\xa6GC\x0b@'
tRp25
sb.